; ModuleID = 'source-C-CXX/25/43.cpp'
source_filename = "source-C-CXX/25/43.cpp"
target datalayout = "e-m:e-p270:32:32-p271:32:32-p272:64:64-i64:64-f80:128-n8:16:32:64-S128"
target triple = "x86_64-pc-linux-gnu"

%"class.std::ios_base::Init" = type { i8 }
%"class.std::basic_istream" = type { i32 (...)**, i64, %"class.std::basic_ios" }
%"class.std::basic_ios" = type { %"class.std::ios_base", %"class.std::basic_ostream"*, i8, i8, %"class.std::basic_streambuf"*, %"class.std::ctype"*, %"class.std::num_put"*, %"class.std::num_get"* }
%"class.std::ios_base" = type { i32 (...)**, i64, i64, i32, i32, i32, %"struct.std::ios_base::_Callback_list"*, %"struct.std::ios_base::_Words", [8 x %"struct.std::ios_base::_Words"], i32, %"struct.std::ios_base::_Words"*, %"class.std::locale" }
%"struct.std::ios_base::_Callback_list" = type { %"struct.std::ios_base::_Callback_list"*, void (i32, %"class.std::ios_base"*, i32)*, i32, i32 }
%"struct.std::ios_base::_Words" = type { i8*, i64 }
%"class.std::locale" = type { %"class.std::locale::_Impl"* }
%"class.std::locale::_Impl" = type { i32, %"class.std::locale::facet"**, i64, %"class.std::locale::facet"**, i8** }
%"class.std::locale::facet" = type <{ i32 (...)**, i32, [4 x i8] }>
%"class.std::basic_ostream" = type { i32 (...)**, %"class.std::basic_ios" }
%"class.std::basic_streambuf" = type { i32 (...)**, i8*, i8*, i8*, i8*, i8*, i8*, %"class.std::locale" }
%"class.std::ctype" = type <{ %"class.std::locale::facet.base", [4 x i8], %struct.__locale_struct*, i8, [7 x i8], i32*, i32*, i16*, i8, [256 x i8], [256 x i8], i8, [6 x i8] }>
%"class.std::locale::facet.base" = type <{ i32 (...)**, i32 }>
%struct.__locale_struct = type { [13 x %struct.__locale_data*], i16*, i32*, i32*, [13 x i8*] }
%struct.__locale_data = type opaque
%"class.std::num_put" = type { %"class.std::locale::facet.base", [4 x i8] }
%"class.std::num_get" = type { %"class.std::locale::facet.base", [4 x i8] }

@_ZStL8__ioinit = internal global %"class.std::ios_base::Init" zeroinitializer, align 1
@__dso_handle = external hidden global i8
@_ZSt3cin = external global %"class.std::basic_istream", align 8
@_ZSt4cout = external global %"class.std::basic_ostream", align 8
@llvm.global_ctors = appending global [1 x { i32, void ()*, i8* }] [{ i32, void ()*, i8* } { i32 65535, void ()* @_GLOBAL__sub_I_43.cpp, i8* null }]

declare void @_ZNSt8ios_base4InitC1Ev(%"class.std::ios_base::Init"* nonnull align 1 dereferenceable(1)) unnamed_addr #0

; Function Attrs: nounwind
declare void @_ZNSt8ios_base4InitD1Ev(%"class.std::ios_base::Init"* nonnull align 1 dereferenceable(1)) unnamed_addr #1

; Function Attrs: nofree nounwind
declare i32 @__cxa_atexit(void (i8*)*, i8*, i8*) local_unnamed_addr #2

; Function Attrs: mustprogress norecurse sspstrong uwtable
define dso_local i32 @main() local_unnamed_addr #3 {
  %1 = alloca [100 x i8], align 16
  %2 = getelementptr inbounds [100 x i8], [100 x i8]* %1, i64 0, i64 0
  call void @llvm.lifetime.start.p0i8(i64 100, i8* nonnull %2) #8
  %3 = call nonnull align 8 dereferenceable(16) %"class.std::basic_istream"* @_ZNSi3getEPclc(%"class.std::basic_istream"* nonnull align 8 dereferenceable(16) @_ZSt3cin, i8* nonnull %2, i64 100, i8 signext 10)
  br label %4

4:                                                ; preds = %0, %114
  %5 = phi i64 [ 0, %0 ], [ %14, %114 ]
  %6 = sub nsw i64 85, %5
  %7 = lshr i64 %6, 4
  %8 = add nuw nsw i64 %7, 1
  %9 = sub nsw i64 101, %5
  %10 = sub nsw i64 101, %5
  %11 = getelementptr inbounds [100 x i8], [100 x i8]* %1, i64 0, i64 %5
  %12 = load i8, i8* %11, align 1, !tbaa !5
  %13 = icmp eq i8 %12, 32
  %14 = add nuw nsw i64 %5, 1
  br i1 %13, label %15, label %114

15:                                               ; preds = %4
  %16 = getelementptr inbounds [100 x i8], [100 x i8]* %1, i64 0, i64 %14
  %17 = load i8, i8* %16, align 1, !tbaa !5
  %18 = icmp eq i8 %17, 32
  br i1 %18, label %19, label %114

19:                                               ; preds = %15
  %20 = icmp ult i64 %10, 8
  br i1 %20, label %105, label %21

21:                                               ; preds = %19
  %22 = icmp ult i64 %10, 16
  br i1 %22, label %88, label %23

23:                                               ; preds = %21
  %24 = and i64 %10, -16
  %25 = and i64 %8, 3
  %26 = icmp ult i64 %6, 48
  br i1 %26, label %66, label %27

27:                                               ; preds = %23
  %28 = and i64 %8, 2305843009213693948
  br label %29

29:                                               ; preds = %29, %27
  %30 = phi i64 [ 0, %27 ], [ %63, %29 ]
  %31 = phi i64 [ %28, %27 ], [ %64, %29 ]
  %32 = add i64 %5, %30
  %33 = add nuw nsw i64 %32, 1
  %34 = getelementptr inbounds [100 x i8], [100 x i8]* %1, i64 0, i64 %33
  %35 = bitcast i8* %34 to <16 x i8>*
  %36 = load <16 x i8>, <16 x i8>* %35, align 1, !tbaa !5
  %37 = getelementptr inbounds [100 x i8], [100 x i8]* %1, i64 0, i64 %32
  %38 = bitcast i8* %37 to <16 x i8>*
  store <16 x i8> %36, <16 x i8>* %38, align 1, !tbaa !5
  %39 = or i64 %30, 16
  %40 = add i64 %5, %39
  %41 = add nuw nsw i64 %40, 1
  %42 = getelementptr inbounds [100 x i8], [100 x i8]* %1, i64 0, i64 %41
  %43 = bitcast i8* %42 to <16 x i8>*
  %44 = load <16 x i8>, <16 x i8>* %43, align 1, !tbaa !5
  %45 = getelementptr inbounds [100 x i8], [100 x i8]* %1, i64 0, i64 %40
  %46 = bitcast i8* %45 to <16 x i8>*
  store <16 x i8> %44, <16 x i8>* %46, align 1, !tbaa !5
  %47 = or i64 %30, 32
  %48 = add i64 %5, %47
  %49 = add nuw nsw i64 %48, 1
  %50 = getelementptr inbounds [100 x i8], [100 x i8]* %1, i64 0, i64 %49
  %51 = bitcast i8* %50 to <16 x i8>*
  %52 = load <16 x i8>, <16 x i8>* %51, align 1, !tbaa !5
  %53 = getelementptr inbounds [100 x i8], [100 x i8]* %1, i64 0, i64 %48
  %54 = bitcast i8* %53 to <16 x i8>*
  store <16 x i8> %52, <16 x i8>* %54, align 1, !tbaa !5
  %55 = or i64 %30, 48
  %56 = add i64 %5, %55
  %57 = add nuw nsw i64 %56, 1
  %58 = getelementptr inbounds [100 x i8], [100 x i8]* %1, i64 0, i64 %57
  %59 = bitcast i8* %58 to <16 x i8>*
  %60 = load <16 x i8>, <16 x i8>* %59, align 1, !tbaa !5
  %61 = getelementptr inbounds [100 x i8], [100 x i8]* %1, i64 0, i64 %56
  %62 = bitcast i8* %61 to <16 x i8>*
  store <16 x i8> %60, <16 x i8>* %62, align 1, !tbaa !5
  %63 = add nuw i64 %30, 64
  %64 = add i64 %31, -4
  %65 = icmp eq i64 %64, 0
  br i1 %65, label %66, label %29, !llvm.loop !8

66:                                               ; preds = %29, %23
  %67 = phi i64 [ 0, %23 ], [ %63, %29 ]
  %68 = icmp eq i64 %25, 0
  br i1 %68, label %82, label %69

69:                                               ; preds = %66, %69
  %70 = phi i64 [ %79, %69 ], [ %67, %66 ]
  %71 = phi i64 [ %80, %69 ], [ %25, %66 ]
  %72 = add i64 %5, %70
  %73 = add nuw nsw i64 %72, 1
  %74 = getelementptr inbounds [100 x i8], [100 x i8]* %1, i64 0, i64 %73
  %75 = bitcast i8* %74 to <16 x i8>*
  %76 = load <16 x i8>, <16 x i8>* %75, align 1, !tbaa !5
  %77 = getelementptr inbounds [100 x i8], [100 x i8]* %1, i64 0, i64 %72
  %78 = bitcast i8* %77 to <16 x i8>*
  store <16 x i8> %76, <16 x i8>* %78, align 1, !tbaa !5
  %79 = add nuw i64 %70, 16
  %80 = add i64 %71, -1
  %81 = icmp eq i64 %80, 0
  br i1 %81, label %82, label %69, !llvm.loop !11

82:                                               ; preds = %69, %66
  %83 = icmp eq i64 %10, %24
  br i1 %83, label %114, label %84

84:                                               ; preds = %82
  %85 = add i64 %5, %24
  %86 = and i64 %10, 8
  %87 = icmp eq i64 %86, 0
  br i1 %87, label %105, label %88

88:                                               ; preds = %21, %84
  %89 = phi i64 [ %24, %84 ], [ 0, %21 ]
  %90 = and i64 %9, -8
  %91 = add i64 %5, %90
  br label %92

92:                                               ; preds = %92, %88
  %93 = phi i64 [ %89, %88 ], [ %101, %92 ]
  %94 = add i64 %5, %93
  %95 = add nuw nsw i64 %94, 1
  %96 = getelementptr inbounds [100 x i8], [100 x i8]* %1, i64 0, i64 %95
  %97 = bitcast i8* %96 to <8 x i8>*
  %98 = load <8 x i8>, <8 x i8>* %97, align 1, !tbaa !5
  %99 = getelementptr inbounds [100 x i8], [100 x i8]* %1, i64 0, i64 %94
  %100 = bitcast i8* %99 to <8 x i8>*
  store <8 x i8> %98, <8 x i8>* %100, align 1, !tbaa !5
  %101 = add nuw i64 %93, 8
  %102 = icmp eq i64 %101, %90
  br i1 %102, label %103, label %92, !llvm.loop !13

103:                                              ; preds = %92
  %104 = icmp eq i64 %9, %90
  br i1 %104, label %114, label %105

105:                                              ; preds = %19, %84, %103
  %106 = phi i64 [ %5, %19 ], [ %85, %84 ], [ %91, %103 ]
  br label %107

107:                                              ; preds = %105, %107
  %108 = phi i64 [ %109, %107 ], [ %106, %105 ]
  %109 = add nuw nsw i64 %108, 1
  %110 = getelementptr inbounds [100 x i8], [100 x i8]* %1, i64 0, i64 %109
  %111 = load i8, i8* %110, align 1, !tbaa !5
  %112 = getelementptr inbounds [100 x i8], [100 x i8]* %1, i64 0, i64 %108
  store i8 %111, i8* %112, align 1, !tbaa !5
  %113 = icmp eq i64 %109, 101
  br i1 %113, label %114, label %107, !llvm.loop !14

114:                                              ; preds = %107, %82, %103, %4, %15
  %115 = icmp eq i64 %14, 101
  br i1 %115, label %116, label %4, !llvm.loop !16

116:                                              ; preds = %114
  %117 = call i64 @strlen(i8* noundef nonnull dereferenceable(1) %2) #8
  %118 = call nonnull align 8 dereferenceable(8) %"class.std::basic_ostream"* @_ZSt16__ostream_insertIcSt11char_traitsIcEERSt13basic_ostreamIT_T0_ES6_PKS3_l(%"class.std::basic_ostream"* nonnull align 8 dereferenceable(8) @_ZSt4cout, i8* nonnull %2, i64 %117)
  %119 = load i8*, i8** bitcast (%"class.std::basic_ostream"* @_ZSt4cout to i8**), align 8, !tbaa !17
  %120 = getelementptr i8, i8* %119, i64 -24
  %121 = bitcast i8* %120 to i64*
  %122 = load i64, i64* %121, align 8
  %123 = add nsw i64 %122, 240
  %124 = getelementptr inbounds i8, i8* bitcast (%"class.std::basic_ostream"* @_ZSt4cout to i8*), i64 %123
  %125 = bitcast i8* %124 to %"class.std::ctype"**
  %126 = load %"class.std::ctype"*, %"class.std::ctype"** %125, align 8, !tbaa !19
  %127 = icmp eq %"class.std::ctype"* %126, null
  br i1 %127, label %128, label %129

128:                                              ; preds = %116
  call void @_ZSt16__throw_bad_castv() #9
  unreachable

129:                                              ; preds = %116
  %130 = getelementptr inbounds %"class.std::ctype", %"class.std::ctype"* %126, i64 0, i32 8
  %131 = load i8, i8* %130, align 8, !tbaa !23
  %132 = icmp eq i8 %131, 0
  br i1 %132, label %136, label %133

133:                                              ; preds = %129
  %134 = getelementptr inbounds %"class.std::ctype", %"class.std::ctype"* %126, i64 0, i32 9, i64 10
  %135 = load i8, i8* %134, align 1, !tbaa !5
  br label %142

136:                                              ; preds = %129
  call void @_ZNKSt5ctypeIcE13_M_widen_initEv(%"class.std::ctype"* nonnull align 8 dereferenceable(570) %126)
  %137 = bitcast %"class.std::ctype"* %126 to i8 (%"class.std::ctype"*, i8)***
  %138 = load i8 (%"class.std::ctype"*, i8)**, i8 (%"class.std::ctype"*, i8)*** %137, align 8, !tbaa !17
  %139 = getelementptr inbounds i8 (%"class.std::ctype"*, i8)*, i8 (%"class.std::ctype"*, i8)** %138, i64 6
  %140 = load i8 (%"class.std::ctype"*, i8)*, i8 (%"class.std::ctype"*, i8)** %139, align 8
  %141 = call signext i8 %140(%"class.std::ctype"* nonnull align 8 dereferenceable(570) %126, i8 signext 10)
  br label %142

142:                                              ; preds = %133, %136
  %143 = phi i8 [ %135, %133 ], [ %141, %136 ]
  %144 = call nonnull align 8 dereferenceable(8) %"class.std::basic_ostream"* @_ZNSo3putEc(%"class.std::basic_ostream"* nonnull align 8 dereferenceable(8) @_ZSt4cout, i8 signext %143)
  %145 = call nonnull align 8 dereferenceable(8) %"class.std::basic_ostream"* @_ZNSo5flushEv(%"class.std::basic_ostream"* nonnull align 8 dereferenceable(8) %144)
  call void @llvm.lifetime.end.p0i8(i64 100, i8* nonnull %2) #8
  ret i32 0
}

; Function Attrs: argmemonly mustprogress nofree nosync nounwind willreturn
declare void @llvm.lifetime.start.p0i8(i64 immarg, i8* nocapture) #4

declare nonnull align 8 dereferenceable(16) %"class.std::basic_istream"* @_ZNSi3getEPclc(%"class.std::basic_istream"* nonnull align 8 dereferenceable(16), i8*, i64, i8 signext) local_unnamed_addr #0

; Function Attrs: argmemonly mustprogress nofree nosync nounwind willreturn
declare void @llvm.lifetime.end.p0i8(i64 immarg, i8* nocapture) #4

declare nonnull align 8 dereferenceable(8) %"class.std::basic_ostream"* @_ZSt16__ostream_insertIcSt11char_traitsIcEERSt13basic_ostreamIT_T0_ES6_PKS3_l(%"class.std::basic_ostream"* nonnull align 8 dereferenceable(8), i8*, i64) local_unnamed_addr #0

; Function Attrs: argmemonly mustprogress nofree nounwind readonly willreturn
declare i64 @strlen(i8* nocapture) local_unnamed_addr #5

declare nonnull align 8 dereferenceable(8) %"class.std::basic_ostream"* @_ZNSo3putEc(%"class.std::basic_ostream"* nonnull align 8 dereferenceable(8), i8 signext) local_unnamed_addr #0

declare nonnull align 8 dereferenceable(8) %"class.std::basic_ostream"* @_ZNSo5flushEv(%"class.std::basic_ostream"* nonnull align 8 dereferenceable(8)) local_unnamed_addr #0

; Function Attrs: noreturn
declare void @_ZSt16__throw_bad_castv() local_unnamed_addr #6

declare void @_ZNKSt5ctypeIcE13_M_widen_initEv(%"class.std::ctype"* nonnull align 8 dereferenceable(570)) local_unnamed_addr #0

; Function Attrs: sspstrong uwtable
define internal void @_GLOBAL__sub_I_43.cpp() #7 section ".text.startup" {
  tail call void @_ZNSt8ios_base4InitC1Ev(%"class.std::ios_base::Init"* nonnull align 1 dereferenceable(1) @_ZStL8__ioinit)
  %1 = tail call i32 @__cxa_atexit(void (i8*)* bitcast (void (%"class.std::ios_base::Init"*)* @_ZNSt8ios_base4InitD1Ev to void (i8*)*), i8* getelementptr inbounds (%"class.std::ios_base::Init", %"class.std::ios_base::Init"* @_ZStL8__ioinit, i64 0, i32 0), i8* nonnull @__dso_handle) #8
  ret void
}


!llvm.module.flags = !{!0, !1, !2, !3}
!llvm.ident = !{!4}

!0 = !{i32 1, !"wchar_size", i32 4}
!1 = !{i32 7, !"PIC Level", i32 2}
!2 = !{i32 7, !"PIE Level", i32 2}
!3 = !{i32 7, !"uwtable", i32 1}
!4 = !{!"clang version 13.0.0"}
!5 = !{!6, !6, i64 0}
!6 = !{!"omnipotent char", !7, i64 0}
!7 = !{!"Simple C++ TBAA"}
!8 = distinct !{!8, !9, !10}
!9 = !{!"llvm.loop.mustprogress"}
!10 = !{!"llvm.loop.isvectorized", i32 1}
!11 = distinct !{!11, !12}
!12 = !{!"llvm.loop.unroll.disable"}
!13 = distinct !{!13, !9, !10}
!14 = distinct !{!14, !9, !15, !10}
!15 = !{!"llvm.loop.unroll.runtime.disable"}
!16 = distinct !{!16, !9}
!17 = !{!18, !18, i64 0}
!18 = !{!"vtable pointer", !7, i64 0}
!19 = !{!20, !21, i64 240}
!20 = !{!"_ZTSSt9basic_iosIcSt11char_traitsIcEE", !21, i64 216, !6, i64 224, !22, i64 225, !21, i64 232, !21, i64 240, !21, i64 248, !21, i64 256}
!21 = !{!"any pointer", !6, i64 0}
!22 = !{!"bool", !6, i64 0}
!23 = !{!24, !6, i64 56}
!24 = !{!"_ZTSSt5ctypeIcE", !21, i64 16, !22, i64 24, !21, i64 32, !21, i64 40, !21, i64 48, !6, i64 56, !6, i64 57, !6, i64 313, !6, i64 569}
